; Function Attrs: mustprogress uwtable
define void @_ZN5boost9unit_test6output22compiler_log_formatter20entry_context_finishERSoNS0_9log_levelE(ptr nocapture nonnull readnone align 8 %0, ptr noundef nonnull align 8 dereferenceable(8) %1, i32 noundef %2) unnamed_addr #3 align 2 {
  %4 = icmp eq i32 %2, 2
  br i1 %4, label %5, label %7

5:                                                ; preds = %3
  %6 = tail call noundef nonnull align 8 dereferenceable(8) ptr @_ZSt16__ostream_insertIcSt11char_traitsIcEERSt13basic_ostreamIT_T0_ES6_PKS3_l(ptr noundef nonnull align 8 dereferenceable(8) %1, ptr noundef nonnull @.str.34, i64 noundef 1)
  br label %7

7:                                                ; preds = %5, %3
  %8 = tail call noundef nonnull align 8 dereferenceable(8) ptr @_ZNSo5flushEv(ptr noundef nonnull align 8 dereferenceable(8) %1)
  ret void
}